; Function Attrs: nounwind uwtable
define internal fastcc i32 @_remove_federations(ptr noundef readonly captures(none) %0, ptr readonly captures(none) %.8.val, ptr noundef captures(none) initializes((0, 8)) %1) unnamed_addr #0 {
  %3 = alloca %struct.dbd_list_msg_t, align 8
  call void @llvm.lifetime.start.p0(i64 16, ptr nonnull %3) #10
  %4 = getelementptr inbounds nuw i8, ptr %3, i64 8
  store i64 0, ptr %4, align 8
  %5 = tail call i32 @get_log_level() #10
  %6 = icmp sgt i32 %5, 5
  br i1 %6, label %7, label %11

7:                                                ; preds = %2
  %8 = load ptr, ptr %0, align 8
  %9 = getelementptr inbounds nuw i8, ptr %8, i64 60
  %10 = load i32, ptr %9, align 4
  tail call void (i32, ptr, ...) @log_var(i32 noundef 6, ptr noundef nonnull @.str.132, i32 noundef %10) #10
  br label %11

11:                                               ; preds = %7, %2
  %12 = getelementptr inbounds nuw i8, ptr %0, i64 56
  %13 = load ptr, ptr %12, align 8
  %14 = load ptr, ptr %0, align 8
  %15 = getelementptr inbounds nuw i8, ptr %14, i64 8
  %16 = load i32, ptr %15, align 8
  %17 = load ptr, ptr %.8.val, align 8
  %18 = tail call ptr @acct_storage_g_remove_federations(ptr noundef %13, i32 noundef %16, ptr noundef %17) #10
  store ptr %18, ptr %3, align 8
  %.not = icmp eq ptr %18, null
  %19 = tail call ptr @__errno_location() #12
  %20 = load i32, ptr %19, align 4
  br i1 %.not, label %21, label %39

21:                                               ; preds = %11
  %22 = load ptr, ptr %0, align 8
  %23 = getelementptr inbounds nuw i8, ptr %22, i64 60
  %24 = load i32, ptr %23, align 4
  switch i32 %20, label %33 [
    i32 1900, label %25
    i32 2002, label %35
    i32 -1, label %29
    i32 7000, label %30
    i32 2067, label %32
  ]

25:                                               ; preds = %21
  %26 = tail call i32 @get_log_level() #10
  %27 = icmp sgt i32 %26, 5
  br i1 %27, label %28, label %_internal_rc_to_str.exit

28:                                               ; preds = %25
  tail call void (i32, ptr, ...) @log_var(i32 noundef 6, ptr noundef nonnull @.str.16, i32 noundef %24, ptr noundef nonnull @.str.15) #10
  br label %_internal_rc_to_str.exit

29:                                               ; preds = %21
  br label %35

30:                                               ; preds = %21
  %31 = tail call ptr @slurm_strerror(i32 noundef 7000) #10
  br label %35

32:                                               ; preds = %21
  br label %35

33:                                               ; preds = %21
  %34 = tail call ptr @slurm_strerror(i32 noundef %20) #10
  %.not.i = icmp eq ptr %34, null
  %spec.store.select1.i = select i1 %.not.i, ptr @.str.24, ptr %34
  br label %35

35:                                               ; preds = %21, %33, %32, %30, %29
  %.1.i = phi ptr [ @.str.22, %29 ], [ %31, %30 ], [ @.str.23, %32 ], [ %spec.store.select1.i, %33 ], [ @.str.21, %21 ]
  %36 = tail call i32 (ptr, ...) @error(ptr noundef nonnull @.str.16, i32 noundef %24, ptr noundef %.1.i) #10
  br label %_internal_rc_to_str.exit

_internal_rc_to_str.exit:                         ; preds = %25, %28, %35
  %.022.i = phi ptr [ %.1.i, %35 ], [ @.str.15, %28 ], [ @.str.15, %25 ]
  %37 = load ptr, ptr %0, align 8
  %38 = tail call ptr @slurm_persist_make_rc_msg(ptr noundef %37, i32 noundef %20, ptr noundef %.022.i, i16 noundef zeroext 1497) #10
  store ptr %38, ptr %1, align 8
  br label %48

39:                                               ; preds = %11
  %40 = getelementptr inbounds nuw i8, ptr %3, i64 8
  store i32 %20, ptr %40, align 8
  %41 = tail call ptr @init_buf(i32 noundef 1024) #10
  store ptr %41, ptr %1, align 8
  tail call void @pack16(i16 noundef zeroext 1422, ptr noundef %41) #10
  %42 = load ptr, ptr %0, align 8
  %43 = getelementptr inbounds nuw i8, ptr %42, i64 168
  %44 = load i16, ptr %43, align 8
  %45 = load ptr, ptr %1, align 8
  call void @slurmdbd_pack_list_msg(ptr noundef nonnull %3, i16 noundef zeroext %44, i32 noundef 1422, ptr noundef %45) #10
  %46 = load ptr, ptr %3, align 8
  %.not18 = icmp eq ptr %46, null
  br i1 %.not18, label %48, label %47

47:                                               ; preds = %39
  call void @list_destroy(ptr noundef nonnull %46) #10
  br label %48

48:                                               ; preds = %39, %47, %_internal_rc_to_str.exit
  %.0 = phi i32 [ %20, %_internal_rc_to_str.exit ], [ 0, %47 ], [ 0, %39 ]
  call void @llvm.lifetime.end.p0(i64 16, ptr nonnull %3) #10
  ret i32 %.0
}